target datalayout = "e-m:e-p270:32:32-p271:32:32-p272:64:64-i64:64-i128:128-f80:128-n8:16:32:64-S128"
target triple = "x86_64-pc-linux-gnu"

%struct.t_dihatms = type { i32, i32, i32, i32, i32, i32, i32, [9 x i32] }
%"class.std::__cxx11::basic_string" = type { %"struct.std::__cxx11::basic_string<char>::_Alloc_hider", i64, %union.anon }
%"struct.std::__cxx11::basic_string<char>::_Alloc_hider" = type { ptr }
%union.anon = type { i64, [8 x i8] }
%struct.t_dlist = type { [12 x i8], i32, %"class.std::__cxx11::basic_string", [9 x i32], %struct.t_dihatms, [9 x i32], [9 x i32], [9 x float], [9 x [4 x float]] }

@.str.66 = private unnamed_addr constant [16 x i8] c"  %6.2f  %6.2f\0A\00", align 1

; Function Attrs: mustprogress nounwind uwtable
define internal void @_ZL9pr_ntr_s2P8_IO_FILERK7t_dlistif(ptr noundef %0, ptr noundef nonnull align 8 dereferenceable(400) %1, i32 noundef %2, float noundef %3) #2 {
  %5 = alloca ptr, align 8
  %6 = alloca ptr, align 8
  %7 = alloca i32, align 4
  %8 = alloca float, align 4
  store ptr %0, ptr %5, align 8, !tbaa !4
  store ptr %1, ptr %6, align 8, !tbaa !92
  store i32 %2, ptr %7, align 4, !tbaa !13
  store float %3, ptr %8, align 4, !tbaa !143
  %9 = load ptr, ptr %5, align 8, !tbaa !4
  %10 = load float, ptr %8, align 4, !tbaa !143
  %11 = fcmp oeq float %10, 0.000000e+00
  br i1 %11, label %12, label %13

12:                                               ; preds = %4
  br label %23

13:                                               ; preds = %4
  %14 = load ptr, ptr %6, align 8, !tbaa !92
  %15 = getelementptr inbounds nuw %struct.t_dlist, ptr %14, i32 0, i32 6
  %16 = load i32, ptr %7, align 4, !tbaa !13
  %17 = sext i32 %16 to i64
  %18 = getelementptr inbounds [9 x i32], ptr %15, i64 0, i64 %17
  %19 = load i32, ptr %18, align 4, !tbaa !13
  %20 = sitofp i32 %19 to float
  %21 = load float, ptr %8, align 4, !tbaa !143
  %22 = fdiv float %20, %21
  br label %23

23:                                               ; preds = %13, %12
  %24 = phi float [ 0.000000e+00, %12 ], [ %22, %13 ]
  %25 = fpext float %24 to double
  %26 = load ptr, ptr %6, align 8, !tbaa !92
  %27 = getelementptr inbounds nuw %struct.t_dlist, ptr %26, i32 0, i32 7
  %28 = load i32, ptr %7, align 4, !tbaa !13
  %29 = sext i32 %28 to i64
  %30 = getelementptr inbounds [9 x float], ptr %27, i64 0, i64 %29
  %31 = load float, ptr %30, align 4, !tbaa !143
  %32 = fpext float %31 to double
  %33 = call i32 (ptr, ptr, ...) @fprintf(ptr noundef %9, ptr noundef @.str.66, double noundef %25, double noundef %32) #16
  ret void
}