; Function Attrs: mustprogress nofree nounwind uwtable
define internal void @_ZL9pr_ntr_s2P8_IO_FILERK7t_dlistif(ptr noundef captures(none) %0, ptr noundef nonnull readonly align 8 captures(none) dereferenceable(400) %1, i32 noundef %2, float noundef %3) unnamed_addr #13 {
  %5 = fcmp oeq float %3, 0.000000e+00
  br i1 %5, label %._crit_edge, label %6

._crit_edge:                                      ; preds = %4
  %.pre = sext i32 %2 to i64
  br label %14

6:                                                ; preds = %4
  %7 = getelementptr inbounds nuw i8, ptr %1, i64 184
  %8 = sext i32 %2 to i64
  %9 = getelementptr inbounds [9 x i32], ptr %7, i64 0, i64 %8
  %10 = load i32, ptr %9, align 4, !tbaa !29
  %11 = sitofp i32 %10 to float
  %12 = fdiv float %11, %3
  %13 = fpext float %12 to double
  br label %14

14:                                               ; preds = %._crit_edge, %6
  %.pre-phi = phi i64 [ %.pre, %._crit_edge ], [ %8, %6 ]
  %15 = phi double [ 0.000000e+00, %._crit_edge ], [ %13, %6 ]
  %16 = getelementptr inbounds nuw i8, ptr %1, i64 220
  %17 = getelementptr inbounds [9 x float], ptr %16, i64 0, i64 %.pre-phi
  %18 = load float, ptr %17, align 4, !tbaa !77
  %19 = fpext float %18 to double
  %20 = tail call i32 (ptr, ptr, ...) @fprintf(ptr noundef %0, ptr noundef nonnull @.str.66, double noundef %15, double noundef %19) #18
  ret void
}